target datalayout = "e-m:e-p270:32:32-p271:32:32-p272:64:64-i64:64-i128:128-f80:128-n8:16:32:64-S128"
target triple = "x86_64-pc-linux-gnu"

%struct.ARKodeButcherTableMem = type { i32, i32, i32, ptr, ptr, ptr, ptr }

; Function Attrs: nounwind uwtable
define ptr @ARKodeButcherTable_Alloc(i32 noundef %0, i32 noundef %1) #0 {
  %3 = alloca ptr, align 8
  %4 = alloca i32, align 4
  %5 = alloca i32, align 4
  %6 = alloca i32, align 4
  %7 = alloca ptr, align 8
  %8 = alloca i32, align 4
  store i32 %0, ptr %4, align 4, !tbaa !3
  store i32 %1, ptr %5, align 4, !tbaa !3
  call void @llvm.lifetime.start.p0(i64 4, ptr %6) #7
  call void @llvm.lifetime.start.p0(i64 8, ptr %7) #7
  %9 = load i32, ptr %4, align 4, !tbaa !3
  %10 = icmp slt i32 %9, 1
  br i1 %10, label %11, label %12

11:                                               ; preds = %2
  store ptr null, ptr %3, align 8
  store i32 1, ptr %8, align 4
  br label %130

12:                                               ; preds = %2
  store ptr null, ptr %7, align 8, !tbaa !7
  %13 = call noalias ptr @malloc(i64 noundef 48) #8
  store ptr %13, ptr %7, align 8, !tbaa !7
  %14 = load ptr, ptr %7, align 8, !tbaa !7
  %15 = icmp eq ptr %14, null
  br i1 %15, label %16, label %17

16:                                               ; preds = %12
  store ptr null, ptr %3, align 8
  store i32 1, ptr %8, align 4
  br label %130

17:                                               ; preds = %12
  %18 = load ptr, ptr %7, align 8, !tbaa !7
  %19 = getelementptr inbounds nuw %struct.ARKodeButcherTableMem, ptr %18, i32 0, i32 3
  store ptr null, ptr %19, align 8, !tbaa !10
  %20 = load ptr, ptr %7, align 8, !tbaa !7
  %21 = getelementptr inbounds nuw %struct.ARKodeButcherTableMem, ptr %20, i32 0, i32 5
  store ptr null, ptr %21, align 8, !tbaa !14
  %22 = load ptr, ptr %7, align 8, !tbaa !7
  %23 = getelementptr inbounds nuw %struct.ARKodeButcherTableMem, ptr %22, i32 0, i32 4
  store ptr null, ptr %23, align 8, !tbaa !15
  %24 = load ptr, ptr %7, align 8, !tbaa !7
  %25 = getelementptr inbounds nuw %struct.ARKodeButcherTableMem, ptr %24, i32 0, i32 6
  store ptr null, ptr %25, align 8, !tbaa !16
  %26 = load i32, ptr %4, align 4, !tbaa !3
  %27 = load ptr, ptr %7, align 8, !tbaa !7
  %28 = getelementptr inbounds nuw %struct.ARKodeButcherTableMem, ptr %27, i32 0, i32 2
  store i32 %26, ptr %28, align 8, !tbaa !17
  %29 = load i32, ptr %4, align 4, !tbaa !3
  %30 = sext i32 %29 to i64
  %31 = call noalias ptr @calloc(i64 noundef %30, i64 noundef 8) #9
  %32 = load ptr, ptr %7, align 8, !tbaa !7
  %33 = getelementptr inbounds nuw %struct.ARKodeButcherTableMem, ptr %32, i32 0, i32 3
  store ptr %31, ptr %33, align 8, !tbaa !10
  %34 = load ptr, ptr %7, align 8, !tbaa !7
  %35 = getelementptr inbounds nuw %struct.ARKodeButcherTableMem, ptr %34, i32 0, i32 3
  %36 = load ptr, ptr %35, align 8, !tbaa !10
  %37 = icmp eq ptr %36, null
  br i1 %37, label %38, label %40

38:                                               ; preds = %17
  %39 = load ptr, ptr %7, align 8, !tbaa !7
  call void @ARKodeButcherTable_Free(ptr noundef %39)
  store ptr null, ptr %3, align 8
  store i32 1, ptr %8, align 4
  br label %130

40:                                               ; preds = %17
  store i32 0, ptr %6, align 4, !tbaa !3
  br label %41

41:                                               ; preds = %52, %40
  %42 = load i32, ptr %6, align 4, !tbaa !3
  %43 = load i32, ptr %4, align 4, !tbaa !3
  %44 = icmp slt i32 %42, %43
  br i1 %44, label %45, label %55

45:                                               ; preds = %41
  %46 = load ptr, ptr %7, align 8, !tbaa !7
  %47 = getelementptr inbounds nuw %struct.ARKodeButcherTableMem, ptr %46, i32 0, i32 3
  %48 = load ptr, ptr %47, align 8, !tbaa !10
  %49 = load i32, ptr %6, align 4, !tbaa !3
  %50 = sext i32 %49 to i64
  %51 = getelementptr inbounds ptr, ptr %48, i64 %50
  store ptr null, ptr %51, align 8, !tbaa !18
  br label %52

52:                                               ; preds = %45
  %53 = load i32, ptr %6, align 4, !tbaa !3
  %54 = add nsw i32 %53, 1
  store i32 %54, ptr %6, align 4, !tbaa !3
  br label %41

55:                                               ; preds = %41
  store i32 0, ptr %6, align 4, !tbaa !3
  br label %56

56:                                               ; preds = %81, %55
  %57 = load i32, ptr %6, align 4, !tbaa !3
  %58 = load i32, ptr %4, align 4, !tbaa !3
  %59 = icmp slt i32 %57, %58
  br i1 %59, label %60, label %84

60:                                               ; preds = %56
  %61 = load i32, ptr %4, align 4, !tbaa !3
  %62 = sext i32 %61 to i64
  %63 = call noalias ptr @calloc(i64 noundef %62, i64 noundef 8) #9
  %64 = load ptr, ptr %7, align 8, !tbaa !7
  %65 = getelementptr inbounds nuw %struct.ARKodeButcherTableMem, ptr %64, i32 0, i32 3
  %66 = load ptr, ptr %65, align 8, !tbaa !10
  %67 = load i32, ptr %6, align 4, !tbaa !3
  %68 = sext i32 %67 to i64
  %69 = getelementptr inbounds ptr, ptr %66, i64 %68
  store ptr %63, ptr %69, align 8, !tbaa !18
  %70 = load ptr, ptr %7, align 8, !tbaa !7
  %71 = getelementptr inbounds nuw %struct.ARKodeButcherTableMem, ptr %70, i32 0, i32 3
  %72 = load ptr, ptr %71, align 8, !tbaa !10
  %73 = load i32, ptr %6, align 4, !tbaa !3
  %74 = sext i32 %73 to i64
  %75 = getelementptr inbounds ptr, ptr %72, i64 %74
  %76 = load ptr, ptr %75, align 8, !tbaa !18
  %77 = icmp eq ptr %76, null
  br i1 %77, label %78, label %80

78:                                               ; preds = %60
  %79 = load ptr, ptr %7, align 8, !tbaa !7
  call void @ARKodeButcherTable_Free(ptr noundef %79)
  store ptr null, ptr %3, align 8
  store i32 1, ptr %8, align 4
  br label %130

80:                                               ; preds = %60
  br label %81

81:                                               ; preds = %80
  %82 = load i32, ptr %6, align 4, !tbaa !3
  %83 = add nsw i32 %82, 1
  store i32 %83, ptr %6, align 4, !tbaa !3
  br label %56

84:                                               ; preds = %56
  %85 = load i32, ptr %4, align 4, !tbaa !3
  %86 = sext i32 %85 to i64
  %87 = call noalias ptr @calloc(i64 noundef %86, i64 noundef 8) #9
  %88 = load ptr, ptr %7, align 8, !tbaa !7
  %89 = getelementptr inbounds nuw %struct.ARKodeButcherTableMem, ptr %88, i32 0, i32 5
  store ptr %87, ptr %89, align 8, !tbaa !14
  %90 = load ptr, ptr %7, align 8, !tbaa !7
  %91 = getelementptr inbounds nuw %struct.ARKodeButcherTableMem, ptr %90, i32 0, i32 5
  %92 = load ptr, ptr %91, align 8, !tbaa !14
  %93 = icmp eq ptr %92, null
  br i1 %93, label %94, label %96

94:                                               ; preds = %84
  %95 = load ptr, ptr %7, align 8, !tbaa !7
  call void @ARKodeButcherTable_Free(ptr noundef %95)
  store ptr null, ptr %3, align 8
  store i32 1, ptr %8, align 4
  br label %130

96:                                               ; preds = %84
  %97 = load i32, ptr %4, align 4, !tbaa !3
  %98 = sext i32 %97 to i64
  %99 = call noalias ptr @calloc(i64 noundef %98, i64 noundef 8) #9
  %100 = load ptr, ptr %7, align 8, !tbaa !7
  %101 = getelementptr inbounds nuw %struct.ARKodeButcherTableMem, ptr %100, i32 0, i32 4
  store ptr %99, ptr %101, align 8, !tbaa !15
  %102 = load ptr, ptr %7, align 8, !tbaa !7
  %103 = getelementptr inbounds nuw %struct.ARKodeButcherTableMem, ptr %102, i32 0, i32 4
  %104 = load ptr, ptr %103, align 8, !tbaa !15
  %105 = icmp eq ptr %104, null
  br i1 %105, label %106, label %108

106:                                              ; preds = %96
  %107 = load ptr, ptr %7, align 8, !tbaa !7
  call void @ARKodeButcherTable_Free(ptr noundef %107)
  store ptr null, ptr %3, align 8
  store i32 1, ptr %8, align 4
  br label %130

108:                                              ; preds = %96
  %109 = load i32, ptr %5, align 4, !tbaa !3
  %110 = icmp ne i32 %109, 0
  br i1 %110, label %111, label %124

111:                                              ; preds = %108
  %112 = load i32, ptr %4, align 4, !tbaa !3
  %113 = sext i32 %112 to i64
  %114 = call noalias ptr @calloc(i64 noundef %113, i64 noundef 8) #9
  %115 = load ptr, ptr %7, align 8, !tbaa !7
  %116 = getelementptr inbounds nuw %struct.ARKodeButcherTableMem, ptr %115, i32 0, i32 6
  store ptr %114, ptr %116, align 8, !tbaa !16
  %117 = load ptr, ptr %7, align 8, !tbaa !7
  %118 = getelementptr inbounds nuw %struct.ARKodeButcherTableMem, ptr %117, i32 0, i32 6
  %119 = load ptr, ptr %118, align 8, !tbaa !16
  %120 = icmp eq ptr %119, null
  br i1 %120, label %121, label %123

121:                                              ; preds = %111
  %122 = load ptr, ptr %7, align 8, !tbaa !7
  call void @ARKodeButcherTable_Free(ptr noundef %122)
  store ptr null, ptr %3, align 8
  store i32 1, ptr %8, align 4
  br label %130

123:                                              ; preds = %111
  br label %124

124:                                              ; preds = %123, %108
  %125 = load ptr, ptr %7, align 8, !tbaa !7
  %126 = getelementptr inbounds nuw %struct.ARKodeButcherTableMem, ptr %125, i32 0, i32 0
  store i32 0, ptr %126, align 8, !tbaa !19
  %127 = load ptr, ptr %7, align 8, !tbaa !7
  %128 = getelementptr inbounds nuw %struct.ARKodeButcherTableMem, ptr %127, i32 0, i32 1
  store i32 0, ptr %128, align 4, !tbaa !20
  %129 = load ptr, ptr %7, align 8, !tbaa !7
  store ptr %129, ptr %3, align 8
  store i32 1, ptr %8, align 4
  br label %130

130:                                              ; preds = %124, %121, %106, %94, %78, %38, %16, %11
  call void @llvm.lifetime.end.p0(i64 8, ptr %7) #7
  call void @llvm.lifetime.end.p0(i64 4, ptr %6) #7
  %131 = load ptr, ptr %3, align 8
  ret ptr %131
}