; Function Attrs: nounwind uwtable
define noundef ptr @ARKodeButcherTable_Alloc(i32 noundef %0, i32 noundef %1) local_unnamed_addr #0 {
  %3 = icmp slt i32 %0, 1
  br i1 %3, label %37, label %4

4:                                                ; preds = %2
  %5 = tail call noalias dereferenceable_or_null(48) ptr @malloc(i64 noundef 48) #15
  %6 = icmp eq ptr %5, null
  br i1 %6, label %37, label %7

7:                                                ; preds = %4
  %8 = getelementptr inbounds nuw i8, ptr %5, i64 16
  %9 = getelementptr inbounds nuw i8, ptr %5, i64 32
  %10 = getelementptr inbounds nuw i8, ptr %5, i64 24
  %11 = getelementptr inbounds nuw i8, ptr %5, i64 40
  %12 = getelementptr inbounds nuw i8, ptr %5, i64 8
  %13 = getelementptr inbounds nuw i8, ptr %5, i64 24
  tail call void @llvm.memset.p0.i64(ptr noundef nonnull align 8 dereferenceable(24) %13, i8 0, i64 24, i1 false)
  store i32 %0, ptr %12, align 8, !tbaa !3
  %14 = zext nneg i32 %0 to i64
  %15 = tail call noalias ptr @calloc(i64 noundef %14, i64 noundef 8) #16
  store ptr %15, ptr %8, align 8, !tbaa !11
  %16 = icmp eq ptr %15, null
  br i1 %16, label %17, label %.lr.ph48.preheader

17:                                               ; preds = %7
  tail call void @ARKodeButcherTable_Free(ptr noundef nonnull %5)
  br label %37

.lr.ph48.preheader:                               ; preds = %7
  %wide.trip.count = zext nneg i32 %0 to i64
  br label %.lr.ph48

18:                                               ; preds = %.lr.ph48
  %indvars.iv.next = add nuw nsw i64 %indvars.iv, 1
  %exitcond.not = icmp eq i64 %indvars.iv.next, %wide.trip.count
  br i1 %exitcond.not, label %._crit_edge, label %.lr.ph48

.lr.ph48:                                         ; preds = %.lr.ph48.preheader, %18
  %indvars.iv = phi i64 [ 0, %.lr.ph48.preheader ], [ %indvars.iv.next, %18 ]
  %19 = tail call noalias ptr @calloc(i64 noundef %14, i64 noundef 8) #16
  %20 = getelementptr inbounds nuw ptr, ptr %15, i64 %indvars.iv
  store ptr %19, ptr %20, align 8, !tbaa !12
  %21 = icmp eq ptr %19, null
  br i1 %21, label %22, label %18

22:                                               ; preds = %.lr.ph48
  tail call void @ARKodeButcherTable_Free(ptr noundef nonnull %5)
  br label %37

._crit_edge:                                      ; preds = %18
  %23 = tail call noalias ptr @calloc(i64 noundef %14, i64 noundef 8) #16
  store ptr %23, ptr %9, align 8, !tbaa !13
  %24 = icmp eq ptr %23, null
  br i1 %24, label %25, label %26

25:                                               ; preds = %._crit_edge
  tail call void @ARKodeButcherTable_Free(ptr noundef nonnull %5)
  br label %37

26:                                               ; preds = %._crit_edge
  %27 = tail call noalias ptr @calloc(i64 noundef %14, i64 noundef 8) #16
  store ptr %27, ptr %10, align 8, !tbaa !14
  %28 = icmp eq ptr %27, null
  br i1 %28, label %29, label %30

29:                                               ; preds = %26
  tail call void @ARKodeButcherTable_Free(ptr noundef nonnull %5)
  br label %37

30:                                               ; preds = %26
  %.not = icmp eq i32 %1, 0
  br i1 %.not, label %35, label %31

31:                                               ; preds = %30
  %32 = tail call noalias ptr @calloc(i64 noundef %14, i64 noundef 8) #16
  store ptr %32, ptr %11, align 8, !tbaa !15
  %33 = icmp eq ptr %32, null
  br i1 %33, label %34, label %35

34:                                               ; preds = %31
  tail call void @ARKodeButcherTable_Free(ptr noundef nonnull %5)
  br label %37

35:                                               ; preds = %31, %30
  store i32 0, ptr %5, align 8, !tbaa !16
  %36 = getelementptr inbounds nuw i8, ptr %5, i64 4
  store i32 0, ptr %36, align 4, !tbaa !17
  br label %37

37:                                               ; preds = %4, %2, %35, %34, %29, %25, %22, %17
  %.042 = phi ptr [ null, %17 ], [ null, %22 ], [ null, %25 ], [ null, %29 ], [ null, %34 ], [ %5, %35 ], [ null, %2 ], [ null, %4 ]
  ret ptr %.042
}